target datalayout = "e-m:e-p270:32:32-p271:32:32-p272:64:64-i64:64-i128:128-f80:128-n8:16:32:64-S128"
target triple = "x86_64-pc-linux-gnu"

%"class.cv::ximgproc::segmentation::SelectiveSearchSegmentationStrategy" = type { %"class.cv::Algorithm" }
%"class.cv::Algorithm" = type { ptr }
%"class.std::__cxx11::basic_string" = type { %"struct.std::__cxx11::basic_string<char>::_Alloc_hider", i64, %union.anon }
%"struct.std::__cxx11::basic_string<char>::_Alloc_hider" = type { ptr }
%union.anon = type { i64, [8 x i8] }
%"class.std::__shared_count" = type { ptr }
%"class.cv::ximgproc::segmentation::SelectiveSearchSegmentationStrategyMultipleImpl" = type <{ %"class.cv::ximgproc::segmentation::SelectiveSearchSegmentationStrategyMultiple", %"class.std::__cxx11::basic_string", %"class.std::vector.11", %"class.std::vector.16", float, [4 x i8] }>
%"class.cv::ximgproc::segmentation::SelectiveSearchSegmentationStrategyMultiple" = type { %"class.cv::ximgproc::segmentation::SelectiveSearchSegmentationStrategy" }
%"class.std::vector.11" = type { %"struct.std::_Vector_base.12" }
%"struct.std::_Vector_base.12" = type { %"struct.std::_Vector_base<cv::Ptr<cv::ximgproc::segmentation::SelectiveSearchSegmentationStrategy>, std::allocator<cv::Ptr<cv::ximgproc::segmentation::SelectiveSearchSegmentationStrategy>>>::_Vector_impl" }
%"struct.std::_Vector_base<cv::Ptr<cv::ximgproc::segmentation::SelectiveSearchSegmentationStrategy>, std::allocator<cv::Ptr<cv::ximgproc::segmentation::SelectiveSearchSegmentationStrategy>>>::_Vector_impl" = type { %"struct.std::_Vector_base<cv::Ptr<cv::ximgproc::segmentation::SelectiveSearchSegmentationStrategy>, std::allocator<cv::Ptr<cv::ximgproc::segmentation::SelectiveSearchSegmentationStrategy>>>::_Vector_impl_data" }
%"struct.std::_Vector_base<cv::Ptr<cv::ximgproc::segmentation::SelectiveSearchSegmentationStrategy>, std::allocator<cv::Ptr<cv::ximgproc::segmentation::SelectiveSearchSegmentationStrategy>>>::_Vector_impl_data" = type { ptr, ptr, ptr }
%"class.std::vector.16" = type { %"struct.std::_Vector_base.17" }
%"struct.std::_Vector_base.17" = type { %"struct.std::_Vector_base<float, std::allocator<float>>::_Vector_impl" }
%"struct.std::_Vector_base<float, std::allocator<float>>::_Vector_impl" = type { %"struct.std::_Vector_base<float, std::allocator<float>>::_Vector_impl_data" }
%"struct.std::_Vector_base<float, std::allocator<float>>::_Vector_impl_data" = type { ptr, ptr, ptr }
%"struct.cv::Ptr.7" = type { %"class.std::shared_ptr.8" }
%"class.std::shared_ptr.8" = type { %"class.std::__shared_ptr.9" }
%"class.std::__shared_ptr.9" = type { ptr, %"class.std::__shared_count" }

; Function Attrs: mustprogress nounwind uwtable
define linkonce_odr hidden noundef ptr @_ZNKSt12__shared_ptrIN2cv8ximgproc12segmentation35SelectiveSearchSegmentationStrategyELN9__gnu_cxx12_Lock_policyE2EE3getEv(ptr noundef nonnull align 8 dereferenceable(16) %0) #7 comdat align 2 {
  %2 = alloca ptr, align 8
  store ptr %0, ptr %2, align 8, !tbaa !112
  %3 = load ptr, ptr %2, align 8
  %4 = getelementptr inbounds nuw %"class.std::__shared_ptr.9", ptr %3, i32 0, i32 0
  %5 = load ptr, ptr %4, align 8, !tbaa !562
  ret ptr %5
}

; Function Attrs: mustprogress nounwind uwtable
define linkonce_odr hidden noundef ptr @_ZNK2cv3PtrINS_8ximgproc12segmentation35SelectiveSearchSegmentationStrategyEEptEv(ptr noundef nonnull align 8 dereferenceable(16) %0) #7 comdat align 2 {
  %2 = alloca ptr, align 8
  store ptr %0, ptr %2, align 8, !tbaa !80
  %3 = load ptr, ptr %2, align 8
  %4 = call noundef ptr @_ZNKSt12__shared_ptrIN2cv8ximgproc12segmentation35SelectiveSearchSegmentationStrategyELN9__gnu_cxx12_Lock_policyE2EE3getEv(ptr noundef nonnull align 8 dereferenceable(16) %3) #3
  ret ptr %4
}

; Function Attrs: mustprogress nounwind uwtable
define linkonce_odr hidden noundef nonnull align 8 dereferenceable(16) ptr @_ZNSt6vectorIN2cv3PtrINS0_8ximgproc12segmentation35SelectiveSearchSegmentationStrategyEEESaIS5_EEixEm(ptr noundef nonnull align 8 dereferenceable(24) %0, i64 noundef %1) #7 comdat align 2 {
  %3 = alloca ptr, align 8
  %4 = alloca i64, align 8
  store ptr %0, ptr %3, align 8, !tbaa !93
  store i64 %1, ptr %4, align 8, !tbaa !64
  %5 = load ptr, ptr %3, align 8
  %6 = getelementptr inbounds nuw %"struct.std::_Vector_base.12", ptr %5, i32 0, i32 0
  %7 = getelementptr inbounds nuw %"struct.std::_Vector_base<cv::Ptr<cv::ximgproc::segmentation::SelectiveSearchSegmentationStrategy>, std::allocator<cv::Ptr<cv::ximgproc::segmentation::SelectiveSearchSegmentationStrategy>>>::_Vector_impl_data", ptr %6, i32 0, i32 0
  %8 = load ptr, ptr %7, align 8, !tbaa !101
  %9 = load i64, ptr %4, align 8, !tbaa !64
  %10 = getelementptr inbounds nuw %"struct.cv::Ptr.7", ptr %8, i64 %9
  ret ptr %10
}

; Function Attrs: mustprogress nounwind uwtable
define linkonce_odr hidden noundef nonnull align 4 dereferenceable(4) ptr @_ZNSt6vectorIfSaIfEEixEm(ptr noundef nonnull align 8 dereferenceable(24) %0, i64 noundef %1) #7 comdat align 2 {
  %3 = alloca ptr, align 8
  %4 = alloca i64, align 8
  store ptr %0, ptr %3, align 8, !tbaa !97
  store i64 %1, ptr %4, align 8, !tbaa !64
  %5 = load ptr, ptr %3, align 8
  %6 = getelementptr inbounds nuw %"struct.std::_Vector_base.17", ptr %5, i32 0, i32 0
  %7 = getelementptr inbounds nuw %"struct.std::_Vector_base<float, std::allocator<float>>::_Vector_impl_data", ptr %6, i32 0, i32 0
  %8 = load ptr, ptr %7, align 8, !tbaa !102
  %9 = load i64, ptr %4, align 8, !tbaa !64
  %10 = getelementptr inbounds nuw float, ptr %8, i64 %9
  ret ptr %10
}

; Function Attrs: mustprogress nounwind uwtable
define linkonce_odr hidden noundef i64 @_ZNKSt6vectorIN2cv3PtrINS0_8ximgproc12segmentation35SelectiveSearchSegmentationStrategyEEESaIS5_EE4sizeEv(ptr noundef nonnull align 8 dereferenceable(24) %0) #7 comdat align 2 {
  %2 = alloca ptr, align 8
  store ptr %0, ptr %2, align 8, !tbaa !93
  %3 = load ptr, ptr %2, align 8
  %4 = getelementptr inbounds nuw %"struct.std::_Vector_base.12", ptr %3, i32 0, i32 0
  %5 = getelementptr inbounds nuw %"struct.std::_Vector_base<cv::Ptr<cv::ximgproc::segmentation::SelectiveSearchSegmentationStrategy>, std::allocator<cv::Ptr<cv::ximgproc::segmentation::SelectiveSearchSegmentationStrategy>>>::_Vector_impl_data", ptr %4, i32 0, i32 1
  %6 = load ptr, ptr %5, align 8, !tbaa !95
  %7 = getelementptr inbounds nuw %"struct.std::_Vector_base.12", ptr %3, i32 0, i32 0
  %8 = getelementptr inbounds nuw %"struct.std::_Vector_base<cv::Ptr<cv::ximgproc::segmentation::SelectiveSearchSegmentationStrategy>, std::allocator<cv::Ptr<cv::ximgproc::segmentation::SelectiveSearchSegmentationStrategy>>>::_Vector_impl_data", ptr %7, i32 0, i32 0
  %9 = load ptr, ptr %8, align 8, !tbaa !101
  %10 = ptrtoint ptr %6 to i64
  %11 = ptrtoint ptr %9 to i64
  %12 = sub i64 %10, %11
  %13 = sdiv exact i64 %12, 16
  ret i64 %13
}

; Function Attrs: mustprogress uwtable
define hidden noundef float @_ZN2cv8ximgproc12segmentation47SelectiveSearchSegmentationStrategyMultipleImpl3getEii(ptr noundef nonnull align 8 dereferenceable(96) %0, i32 noundef %1, i32 noundef %2) unnamed_addr #4 align 2 {
  %4 = alloca ptr, align 8
  %5 = alloca i32, align 4
  %6 = alloca i32, align 4
  %7 = alloca float, align 4
  %8 = alloca i32, align 4
  store ptr %0, ptr %4, align 8, !tbaa !78
  store i32 %1, ptr %5, align 4, !tbaa !10
  store i32 %2, ptr %6, align 4, !tbaa !10
  %9 = load ptr, ptr %4, align 8
  call void @llvm.lifetime.start.p0(i64 4, ptr %7) #3
  store float 0.000000e+00, ptr %7, align 4, !tbaa !33
  call void @llvm.lifetime.start.p0(i64 4, ptr %8) #3
  store i32 0, ptr %8, align 4, !tbaa !10
  br label %10

10:                                               ; preds = %36, %3
  %11 = load i32, ptr %8, align 4, !tbaa !10
  %12 = zext i32 %11 to i64
  %13 = getelementptr inbounds nuw %"class.cv::ximgproc::segmentation::SelectiveSearchSegmentationStrategyMultipleImpl", ptr %9, i32 0, i32 2
  %14 = call noundef i64 @_ZNKSt6vectorIN2cv3PtrINS0_8ximgproc12segmentation35SelectiveSearchSegmentationStrategyEEESaIS5_EE4sizeEv(ptr noundef nonnull align 8 dereferenceable(24) %13) #3
  %15 = icmp ult i64 %12, %14
  br i1 %15, label %17, label %16

16:                                               ; preds = %10
  call void @llvm.lifetime.end.p0(i64 4, ptr %8) #3
  br label %39

17:                                               ; preds = %10
  %18 = getelementptr inbounds nuw %"class.cv::ximgproc::segmentation::SelectiveSearchSegmentationStrategyMultipleImpl", ptr %9, i32 0, i32 3
  %19 = load i32, ptr %8, align 4, !tbaa !10
  %20 = zext i32 %19 to i64
  %21 = call noundef nonnull align 4 dereferenceable(4) ptr @_ZNSt6vectorIfSaIfEEixEm(ptr noundef nonnull align 8 dereferenceable(24) %18, i64 noundef %20) #3
  %22 = load float, ptr %21, align 4, !tbaa !33
  %23 = getelementptr inbounds nuw %"class.cv::ximgproc::segmentation::SelectiveSearchSegmentationStrategyMultipleImpl", ptr %9, i32 0, i32 2
  %24 = load i32, ptr %8, align 4, !tbaa !10
  %25 = zext i32 %24 to i64
  %26 = call noundef nonnull align 8 dereferenceable(16) ptr @_ZNSt6vectorIN2cv3PtrINS0_8ximgproc12segmentation35SelectiveSearchSegmentationStrategyEEESaIS5_EEixEm(ptr noundef nonnull align 8 dereferenceable(24) %23, i64 noundef %25) #3
  %27 = call noundef ptr @_ZNK2cv3PtrINS_8ximgproc12segmentation35SelectiveSearchSegmentationStrategyEEptEv(ptr noundef nonnull align 8 dereferenceable(16) %26) #3
  %28 = load i32, ptr %5, align 4, !tbaa !10
  %29 = load i32, ptr %6, align 4, !tbaa !10
  %30 = load ptr, ptr %27, align 8, !tbaa !60
  %31 = getelementptr inbounds ptr, ptr %30, i64 9
  %32 = load ptr, ptr %31, align 8
  %33 = call noundef float %32(ptr noundef nonnull align 8 dereferenceable(8) %27, i32 noundef %28, i32 noundef %29)
  %34 = load float, ptr %7, align 4, !tbaa !33
  %35 = call float @llvm.fmuladd.f32(float %22, float %33, float %34)
  store float %35, ptr %7, align 4, !tbaa !33
  br label %36

36:                                               ; preds = %17
  %37 = load i32, ptr %8, align 4, !tbaa !10
  %38 = add i32 %37, 1
  store i32 %38, ptr %8, align 4, !tbaa !10
  br label %10, !llvm.loop !104

39:                                               ; preds = %16
  %40 = load float, ptr %7, align 4, !tbaa !33
  %41 = getelementptr inbounds nuw %"class.cv::ximgproc::segmentation::SelectiveSearchSegmentationStrategyMultipleImpl", ptr %9, i32 0, i32 4
  %42 = load float, ptr %41, align 8, !tbaa !82
  %43 = fdiv float %40, %42
  call void @llvm.lifetime.end.p0(i64 4, ptr %7) #3
  ret float %43
}