; Function Attrs: mustprogress uwtable
define hidden noundef float @_ZN2cv8ximgproc12segmentation47SelectiveSearchSegmentationStrategyMultipleImpl3getEii(ptr noundef nonnull readonly align 8 captures(none) dereferenceable(96) %0, i32 noundef %1, i32 noundef %2) unnamed_addr #3 align 2 {
  %4 = getelementptr inbounds nuw i8, ptr %0, i64 40
  %5 = getelementptr inbounds nuw i8, ptr %0, i64 48
  %6 = load ptr, ptr %5, align 8, !tbaa !91
  %7 = load ptr, ptr %4, align 8, !tbaa !111
  %.not = icmp eq ptr %6, %7
  br i1 %.not, label %._crit_edge, label %.lr.ph

.lr.ph:                                           ; preds = %3
  %8 = getelementptr inbounds nuw i8, ptr %0, i64 64
  br label %12

._crit_edge:                                      ; preds = %12, %3
  %.08.lcssa = phi float [ 0.000000e+00, %3 ], [ %24, %12 ]
  %9 = getelementptr inbounds nuw i8, ptr %0, i64 88
  %10 = load float, ptr %9, align 8, !tbaa !102
  %11 = fdiv float %.08.lcssa, %10
  ret float %11

12:                                               ; preds = %.lr.ph, %12
  %13 = phi ptr [ %7, %.lr.ph ], [ %28, %12 ]
  %14 = phi i64 [ 0, %.lr.ph ], [ %26, %12 ]
  %.011 = phi i32 [ 0, %.lr.ph ], [ %25, %12 ]
  %.0810 = phi float [ 0.000000e+00, %.lr.ph ], [ %24, %12 ]
  %15 = load ptr, ptr %8, align 8, !tbaa !101
  %16 = getelementptr inbounds nuw float, ptr %15, i64 %14
  %17 = load float, ptr %16, align 4, !tbaa !63
  %18 = getelementptr inbounds nuw %"struct.cv::Ptr.7", ptr %13, i64 %14
  %19 = load ptr, ptr %18, align 8, !tbaa !95
  %20 = load ptr, ptr %19, align 8, !tbaa !53
  %21 = getelementptr inbounds nuw i8, ptr %20, i64 72
  %22 = load ptr, ptr %21, align 8
  %23 = tail call noundef float %22(ptr noundef nonnull align 8 dereferenceable(8) %19, i32 noundef %1, i32 noundef %2)
  %24 = tail call float @llvm.fmuladd.f32(float %17, float %23, float %.0810)
  %25 = add i32 %.011, 1
  %26 = zext i32 %25 to i64
  %27 = load ptr, ptr %5, align 8, !tbaa !91
  %28 = load ptr, ptr %4, align 8, !tbaa !111
  %29 = ptrtoint ptr %27 to i64
  %30 = ptrtoint ptr %28 to i64
  %31 = sub i64 %29, %30
  %32 = ashr exact i64 %31, 4
  %33 = icmp ugt i64 %32, %26
  br i1 %33, label %12, label %._crit_edge, !llvm.loop !114
}